ccopy_reg
_reconstructor
p0
(csklearn.linear_model.base
LinearRegression
p1
c__builtin__
object
p2
Ntp3
Rp4
(dp5
S'normalize'
p6
I00
sS'n_jobs'
p7
I-1
sS'rank_'
p8
I4
sS'fit_intercept'
p9
I01
sS'_residues'
p10
cnumpy.core.multiarray
scalar
p11
(cnumpy
dtype
p12
(S'f8'
p13
I0
I1
tp14
Rp15
(I3
S'<'
p16
NNNI-1
I-1
I0
tp17
bS'nc\xed\xc6\x05\xb6JA'
p18
tp19
Rp20
sS'coef_'
p21
cnumpy.core.multiarray
_reconstruct
p22
(cnumpy
ndarray
p23
(I0
tp24
S'b'
p25
tp26
Rp27
(I1
(I4
tp28
g15
I00
S'\xfe9O\xef\xfb4l@:\xd0%\xba\x07\xad\x03\xc0\x05\x19\xc2\xbb\xe2_\xf6\xbf\xc8+$L\x96\x89\x05\xc0'
p29
tp30
bsS'_sklearn_version'
p31
S'0.19.1'
p32
sS'copy_X'
p33
I01
sS'intercept_'
p34
g11
(g15
S'2\xb6P\xb0\xb4yx@'
p35
tp36
Rp37
sS'singular_'
p38
g22
(g23
(I0
tp39
g25
tp40
Rp41
(I1
(I4
tp42
g15
I00
S'\xd3\xaf=em,R@\xd3\xef\xff\xae0\xbbM@2\x1b7\x05\xc8\xdd@@\x1a~\xaa\xb8\t\x937@'
p43
tp44
bsb.